target datalayout = "e-m:e-p270:32:32-p271:32:32-p272:64:64-i64:64-i128:128-f80:128-n8:16:32:64-S128"
target triple = "x86_64-pc-linux-gnu"

%class.Type = type <{ ptr, ptr, i32, [4 x i8] }>
%class.Type.base = type <{ ptr, ptr, i32 }>
%class.TypeD = type { %class.Type.base, double }

; Function Attrs: mustprogress nounwind uwtable
define linkonce_odr hidden noundef i64 @_Z10jlong_castd(double noundef %0) #1 comdat {
  %2 = alloca double, align 8
  store double %0, ptr %2, align 8
  %3 = load i64, ptr %2, align 8
  ret i64 %3
}

; Function Attrs: mustprogress nounwind uwtable
define linkonce_odr hidden noundef double @_ZNK4Type4getdEv(ptr noundef nonnull align 8 dereferenceable(20) %0) #1 comdat align 2 {
  %2 = alloca ptr, align 8
  store ptr %0, ptr %2, align 8
  %3 = load ptr, ptr %2, align 8
  %4 = getelementptr inbounds %class.TypeD, ptr %3, i32 0, i32 1
  %5 = load double, ptr %4, align 8
  ret double %5
}

; Function Attrs: mustprogress nounwind uwtable
define linkonce_odr hidden noundef ptr @_ZNK4Type19isa_double_constantEv(ptr noundef nonnull align 8 dereferenceable(20) %0) #1 comdat align 2 {
  %2 = alloca ptr, align 8
  store ptr %0, ptr %2, align 8
  %3 = load ptr, ptr %2, align 8
  %4 = getelementptr inbounds %class.Type, ptr %3, i32 0, i32 2
  %5 = load i32, ptr %4, align 8
  %6 = icmp eq i32 %5, 35
  br i1 %6, label %7, label %8

7:                                                ; preds = %1
  br label %9

8:                                                ; preds = %1
  br label %9

9:                                                ; preds = %8, %7
  %10 = phi ptr [ %3, %7 ], [ null, %8 ]
  ret ptr %10
}

; Function Attrs: mustprogress nounwind uwtable
define hidden noundef ptr @_ZNK8MaxDNode8add_ringEPK4TypeS2_(ptr noundef nonnull align 8 dereferenceable(52) %0, ptr noundef %1, ptr noundef %2) unnamed_addr #1 align 2 {
  %4 = alloca ptr, align 8
  %5 = alloca ptr, align 8
  %6 = alloca ptr, align 8
  %7 = alloca ptr, align 8
  %8 = alloca ptr, align 8
  %9 = alloca ptr, align 8
  %10 = alloca double, align 8
  %11 = alloca double, align 8
  store ptr %0, ptr %5, align 8
  store ptr %1, ptr %6, align 8
  store ptr %2, ptr %7, align 8
  %12 = load ptr, ptr %5, align 8
  %13 = load ptr, ptr %6, align 8
  %14 = call noundef ptr @_ZNK4Type19isa_double_constantEv(ptr noundef nonnull align 8 dereferenceable(20) %13)
  store ptr %14, ptr %8, align 8
  %15 = load ptr, ptr %7, align 8
  %16 = call noundef ptr @_ZNK4Type19isa_double_constantEv(ptr noundef nonnull align 8 dereferenceable(20) %15)
  store ptr %16, ptr %9, align 8
  %17 = load ptr, ptr %8, align 8
  %18 = icmp eq ptr %17, null
  br i1 %18, label %22, label %19

19:                                               ; preds = %3
  %20 = load ptr, ptr %9, align 8
  %21 = icmp eq ptr %20, null
  br i1 %21, label %22, label %27

22:                                               ; preds = %19, %3
  %23 = load ptr, ptr %12, align 8
  %24 = getelementptr inbounds ptr, ptr %23, i64 5
  %25 = load ptr, ptr %24, align 8
  %26 = call noundef ptr %25(ptr noundef nonnull align 8 dereferenceable(52) %12)
  store ptr %26, ptr %4, align 8
  br label %75

27:                                               ; preds = %19
  %28 = load ptr, ptr %8, align 8
  %29 = load ptr, ptr %28, align 8
  %30 = getelementptr inbounds ptr, ptr %29, i64 7
  %31 = load ptr, ptr %30, align 8
  %32 = call noundef zeroext i1 %31(ptr noundef nonnull align 8 dereferenceable(32) %28)
  br i1 %32, label %33, label %35

33:                                               ; preds = %27
  %34 = load ptr, ptr %8, align 8
  store ptr %34, ptr %4, align 8
  br label %75

35:                                               ; preds = %27
  %36 = load ptr, ptr %9, align 8
  %37 = load ptr, ptr %36, align 8
  %38 = getelementptr inbounds ptr, ptr %37, i64 7
  %39 = load ptr, ptr %38, align 8
  %40 = call noundef zeroext i1 %39(ptr noundef nonnull align 8 dereferenceable(32) %36)
  br i1 %40, label %41, label %43

41:                                               ; preds = %35
  %42 = load ptr, ptr %9, align 8
  store ptr %42, ptr %4, align 8
  br label %75

43:                                               ; preds = %35
  %44 = load ptr, ptr %8, align 8
  %45 = call noundef double @_ZNK4Type4getdEv(ptr noundef nonnull align 8 dereferenceable(20) %44)
  store double %45, ptr %10, align 8
  %46 = load ptr, ptr %9, align 8
  %47 = call noundef double @_ZNK4Type4getdEv(ptr noundef nonnull align 8 dereferenceable(20) %46)
  store double %47, ptr %11, align 8
  %48 = load double, ptr %10, align 8
  %49 = fcmp une double %48, 0.000000e+00
  br i1 %49, label %53, label %50

50:                                               ; preds = %43
  %51 = load double, ptr %11, align 8
  %52 = fcmp une double %51, 0.000000e+00
  br i1 %52, label %53, label %63

53:                                               ; preds = %50, %43
  %54 = load double, ptr %10, align 8
  %55 = load double, ptr %11, align 8
  %56 = fcmp ogt double %54, %55
  br i1 %56, label %57, label %59

57:                                               ; preds = %53
  %58 = load ptr, ptr %8, align 8
  br label %61

59:                                               ; preds = %53
  %60 = load ptr, ptr %9, align 8
  br label %61

61:                                               ; preds = %59, %57
  %62 = phi ptr [ %58, %57 ], [ %60, %59 ]
  store ptr %62, ptr %4, align 8
  br label %75

63:                                               ; preds = %50
  %64 = load double, ptr %10, align 8
  %65 = call noundef i64 @_Z10jlong_castd(double noundef %64)
  %66 = load double, ptr %11, align 8
  %67 = call noundef i64 @_Z10jlong_castd(double noundef %66)
  %68 = icmp sgt i64 %65, %67
  br i1 %68, label %69, label %71

69:                                               ; preds = %63
  %70 = load ptr, ptr %8, align 8
  br label %73

71:                                               ; preds = %63
  %72 = load ptr, ptr %9, align 8
  br label %73

73:                                               ; preds = %71, %69
  %74 = phi ptr [ %70, %69 ], [ %72, %71 ]
  store ptr %74, ptr %4, align 8
  br label %75

75:                                               ; preds = %73, %61, %41, %33, %22
  %76 = load ptr, ptr %4, align 8
  ret ptr %76
}